(lp0
(I39
I129
I113
tp1
a(I164
I80
I133
tp2
a(I83
I122
I114
tp3
a(I99
I81
I172
tp4
a(I95
I56
I104
tp5
a(I37
I84
I86
tp6
a(I14
I89
I122
tp7
a(I80
I7
I65
tp8
a(I10
I102
I25
tp9
a(I90
I185
I109
tp10
a(I106
I110
I132
tp11
a(I169
I158
I85
tp12
a(I188
I185
I26
tp13
a(I103
I1
I17
tp14
a(I82
I144
I81
tp15
a(I92
I7
I184
tp16
a(I49
I81
I155
tp17
a(I179
I177
I69
tp18
a(I93
I187
I158
tp19
a(I13
I39
I73
tp20
a(I12
I50
I60
tp21
a(I16
I179
I33
tp22
a(I112
I69
I165
tp23
a(I15
I139
I63
tp24
a(I33
I191
I159
tp25
a(I182
I173
I32
tp26
a(I34
I113
I133
tp27
a(I90
I135
I34
tp28
a(I53
I34
I86
tp29
a(I141
I35
I190
tp30
a(I6
I171
I8
tp31
a(I118
I76
I112
tp32
a(I89
I60
I55
tp33
a(I15
I54
I88
tp34
a(I112
I75
I181
tp35
a(I42
I147
I38
tp36
a(I138
I52
I63
tp37
a(I128
I65
I149
tp38
a(I106
I103
I24
tp39
a(I168
I33
I45
tp40
a(I28
I136
I135
tp41
a(I86
I91
I108
tp42
a(I52
I11
I76
tp43
a(I142
I6
I189
tp44
a(I57
I81
I168
tp45
a(I55
I19
I148
tp46
a(I182
I101
I89
tp47
a(I44
I65
I179
tp48
a(I1
I33
I26
tp49
a(I122
I164
I26
tp50
a(I70
I63
I134
tp51
a(I137
I106
I82
tp52
a(I120
I118
I52
tp53
a(I129
I74
I42
tp54
a(I182
I147
I112
tp55
a(I22
I157
I50
tp56
a(I56
I50
I20
tp57
a(I2
I22
I177
tp58
a(I156
I100
I106
tp59
a(I21
I35
I42
tp60
a(I13
I8
I121
tp61
a(I142
I92
I28
tp62
a(I45
I118
I33
tp63
a(I105
I118
I30
tp64
a(I7
I185
I124
tp65
a(I46
I34
I146
tp66
a(I105
I184
I169
tp67
a(I22
I18
I5
tp68
a(I147
I71
I73
tp69
a(I181
I64
I91
tp70
a(I31
I39
I184
tp71
a(I164
I179
I33
tp72
a(I96
I50
I18
tp73
a(I95
I15
I106
tp74
a(I113
I68
I54
tp75
a(I136
I116
I112
tp76
a(I119
I139
I130
tp77
a(I31
I139
I34
tp78
a(I66
I6
I127
tp79
a(I62
I39
I2
tp80
a(I49
I99
I180
tp81
a(I49
I119
I155
tp82
a(I153
I50
I183
tp83
a(I125
I38
I3
tp84
a(I129
I87
I143
tp85
a(I49
I87
I40
tp86
a(I128
I62
I120
tp87
a(I73
I85
I148
tp88
a(I28
I144
I118
tp89
a(I29
I9
I24
tp90
a(I175
I45
I108
tp91
a(I81
I175
I64
tp92
a(I178
I19
I157
tp93
a(I74
I188
I190
tp94
a(I18
I114
I2
tp95
a(I62
I128
I96
tp96
a(I21
I3
I150
tp97
a(I0
I6
I95
tp98
a(I2
I20
I184
tp99
a(I122
I37
I185
tp100
a.